target datalayout = "e-m:e-p270:32:32-p271:32:32-p272:64:64-i64:64-i128:128-f80:128-n8:16:32:64-S128"
target triple = "x86_64-pc-linux-gnu"

%struct.CVodeMemRec = type { double, ptr, ptr, i32, i32, i32, double, double, ptr, i32, ptr, ptr, i32, ptr, i32, i32, double, double, ptr, i32, i32, i32, ptr, ptr, ptr, i32, i32, ptr, ptr, ptr, i32, double, i32, i32, double, ptr, ptr, i32, ptr, ptr, i32, i32, i32, double, ptr, ptr, [13 x ptr], ptr, ptr, ptr, ptr, ptr, [13 x ptr], ptr, ptr, ptr, ptr, [13 x ptr], ptr, ptr, ptr, ptr, ptr, i32, [13 x ptr], ptr, ptr, ptr, ptr, ptr, i32, double, i32, i32, i32, i32, i32, double, double, double, double, double, double, double, double, [14 x double], [6 x double], [13 x double], double, double, double, double, double, double, double, double, double, double, double, i32, ptr, i32, i64, i32, i32, i32, i32, i32, double, double, double, i64, i64, i64, i64, i64, i64, i64, i64, i64, ptr, i64, i64, ptr, i64, i64, i64, i64, i64, i64, i32, i64, i64, i64, i64, i64, i64, double, double, double, ptr, ptr, ptr, ptr, ptr, i32, i32, i64, double, double, double, i32, double, i32, i32, i32, i32, i32, i32, i32, i32, i32, i32, i32, i32, i32, i32, i32, i32, ptr, ptr, ptr, i32, [6 x [4 x double]], i32, i64, ptr, i32, ptr, ptr, double, double, double, ptr, ptr, ptr, double, double, i32, i32, i64, ptr, i32, i32, ptr, i32 }

@.str = private unnamed_addr constant [7 x i8] c"CVODES\00", align 1
@.str.6 = private unnamed_addr constant [26 x i8] c"cvode_mem = NULL illegal.\00", align 1
@.str.34 = private unnamed_addr constant [44 x i8] c"Forward sensitivity analysis not activated.\00", align 1
@.str.86 = private unnamed_addr constant [20 x i8] c"dky = NULL illegal.\00", align 1
@.str.87 = private unnamed_addr constant [21 x i8] c"Illegal value for k.\00", align 1
@.str.88 = private unnamed_addr constant [75 x i8] c"Illegal value for t.t = %lg is not between tcur - hu = %lg and tcur = %lg.\00", align 1
@.str.95 = private unnamed_addr constant [17 x i8] c"CVodeGetSensDky1\00", align 1
@.str.96 = private unnamed_addr constant [22 x i8] c"Illegal value for is.\00", align 1

; Function Attrs: nounwind uwtable
define i32 @CVodeGetSensDky1(ptr noundef %0, double noundef %1, i32 noundef %2, i32 noundef %3, ptr noundef %4) #0 {
  %6 = alloca i32, align 4
  %7 = alloca ptr, align 8
  %8 = alloca double, align 8
  %9 = alloca i32, align 4
  %10 = alloca i32, align 4
  %11 = alloca ptr, align 8
  %12 = alloca double, align 8
  %13 = alloca double, align 8
  %14 = alloca double, align 8
  %15 = alloca double, align 8
  %16 = alloca double, align 8
  %17 = alloca double, align 8
  %18 = alloca i32, align 4
  %19 = alloca i32, align 4
  %20 = alloca ptr, align 8
  %21 = alloca i32, align 4
  store ptr %0, ptr %7, align 8, !tbaa !101
  store double %1, ptr %8, align 8, !tbaa !102
  store i32 %2, ptr %9, align 4, !tbaa !3
  store i32 %3, ptr %10, align 4, !tbaa !3
  store ptr %4, ptr %11, align 8, !tbaa !103
  call void @llvm.lifetime.start.p0(i64 8, ptr %12) #8
  call void @llvm.lifetime.start.p0(i64 8, ptr %13) #8
  call void @llvm.lifetime.start.p0(i64 8, ptr %14) #8
  call void @llvm.lifetime.start.p0(i64 8, ptr %15) #8
  call void @llvm.lifetime.start.p0(i64 8, ptr %16) #8
  call void @llvm.lifetime.start.p0(i64 8, ptr %17) #8
  call void @llvm.lifetime.start.p0(i64 4, ptr %18) #8
  call void @llvm.lifetime.start.p0(i64 4, ptr %19) #8
  call void @llvm.lifetime.start.p0(i64 8, ptr %20) #8
  %22 = load ptr, ptr %7, align 8, !tbaa !101
  %23 = icmp eq ptr %22, null
  br i1 %23, label %24, label %25

24:                                               ; preds = %5
  call void (ptr, i32, ptr, ptr, ptr, ...) @cvProcessError(ptr noundef null, i32 noundef -21, ptr noundef @.str, ptr noundef @.str.95, ptr noundef @.str.6)
  store i32 -21, ptr %6, align 4
  store i32 1, ptr %21, align 4
  br label %196

25:                                               ; preds = %5
  %26 = load ptr, ptr %7, align 8, !tbaa !101
  store ptr %26, ptr %20, align 8, !tbaa !7
  %27 = load ptr, ptr %20, align 8, !tbaa !7
  %28 = getelementptr inbounds nuw %struct.CVodeMemRec, ptr %27, i32 0, i32 19
  %29 = load i32, ptr %28, align 8, !tbaa !58
  %30 = icmp ne i32 %29, 1
  br i1 %30, label %31, label %33

31:                                               ; preds = %25
  %32 = load ptr, ptr %20, align 8, !tbaa !7
  call void (ptr, i32, ptr, ptr, ptr, ...) @cvProcessError(ptr noundef %32, i32 noundef -40, ptr noundef @.str, ptr noundef @.str.95, ptr noundef @.str.34)
  store i32 -40, ptr %6, align 4
  store i32 1, ptr %21, align 4
  br label %196

33:                                               ; preds = %25
  %34 = load ptr, ptr %11, align 8, !tbaa !103
  %35 = icmp eq ptr %34, null
  br i1 %35, label %36, label %38

36:                                               ; preds = %33
  %37 = load ptr, ptr %20, align 8, !tbaa !7
  call void (ptr, i32, ptr, ptr, ptr, ...) @cvProcessError(ptr noundef %37, i32 noundef -26, ptr noundef @.str, ptr noundef @.str.95, ptr noundef @.str.86)
  store i32 -26, ptr %6, align 4
  store i32 1, ptr %21, align 4
  br label %196

38:                                               ; preds = %33
  %39 = load i32, ptr %9, align 4, !tbaa !3
  %40 = icmp slt i32 %39, 0
  br i1 %40, label %47, label %41

41:                                               ; preds = %38
  %42 = load i32, ptr %9, align 4, !tbaa !3
  %43 = load ptr, ptr %20, align 8, !tbaa !7
  %44 = getelementptr inbounds nuw %struct.CVodeMemRec, ptr %43, i32 0, i32 72
  %45 = load i32, ptr %44, align 8, !tbaa !119
  %46 = icmp sgt i32 %42, %45
  br i1 %46, label %47, label %49

47:                                               ; preds = %41, %38
  %48 = load ptr, ptr %20, align 8, !tbaa !7
  call void (ptr, i32, ptr, ptr, ptr, ...) @cvProcessError(ptr noundef %48, i32 noundef -24, ptr noundef @.str, ptr noundef @.str.95, ptr noundef @.str.87)
  store i32 -24, ptr %6, align 4
  store i32 1, ptr %21, align 4
  br label %196

49:                                               ; preds = %41
  %50 = load i32, ptr %10, align 4, !tbaa !3
  %51 = icmp slt i32 %50, 0
  br i1 %51, label %59, label %52

52:                                               ; preds = %49
  %53 = load i32, ptr %10, align 4, !tbaa !3
  %54 = load ptr, ptr %20, align 8, !tbaa !7
  %55 = getelementptr inbounds nuw %struct.CVodeMemRec, ptr %54, i32 0, i32 20
  %56 = load i32, ptr %55, align 4, !tbaa !184
  %57 = sub nsw i32 %56, 1
  %58 = icmp sgt i32 %53, %57
  br i1 %58, label %59, label %61

59:                                               ; preds = %52, %49
  %60 = load ptr, ptr %20, align 8, !tbaa !7
  call void (ptr, i32, ptr, ptr, ptr, ...) @cvProcessError(ptr noundef %60, i32 noundef -45, ptr noundef @.str, ptr noundef @.str.95, ptr noundef @.str.96)
  store i32 -45, ptr %6, align 4
  store i32 1, ptr %21, align 4
  br label %196

61:                                               ; preds = %52
  %62 = load ptr, ptr %20, align 8, !tbaa !7
  %63 = getelementptr inbounds nuw %struct.CVodeMemRec, ptr %62, i32 0, i32 0
  %64 = load double, ptr %63, align 8, !tbaa !22
  %65 = fmul double 1.000000e+02, %64
  %66 = load ptr, ptr %20, align 8, !tbaa !7
  %67 = getelementptr inbounds nuw %struct.CVodeMemRec, ptr %66, i32 0, i32 83
  %68 = load double, ptr %67, align 8, !tbaa !118
  %69 = call double @SUNRabs(double noundef %68)
  %70 = load ptr, ptr %20, align 8, !tbaa !7
  %71 = getelementptr inbounds nuw %struct.CVodeMemRec, ptr %70, i32 0, i32 149
  %72 = load double, ptr %71, align 8, !tbaa !124
  %73 = call double @SUNRabs(double noundef %72)
  %74 = fadd double %69, %73
  %75 = fmul double %65, %74
  store double %75, ptr %15, align 8, !tbaa !102
  %76 = load ptr, ptr %20, align 8, !tbaa !7
  %77 = getelementptr inbounds nuw %struct.CVodeMemRec, ptr %76, i32 0, i32 149
  %78 = load double, ptr %77, align 8, !tbaa !124
  %79 = fcmp olt double %78, 0.000000e+00
  br i1 %79, label %80, label %83

80:                                               ; preds = %61
  %81 = load double, ptr %15, align 8, !tbaa !102
  %82 = fneg double %81
  store double %82, ptr %15, align 8, !tbaa !102
  br label %83

83:                                               ; preds = %80, %61
  %84 = load ptr, ptr %20, align 8, !tbaa !7
  %85 = getelementptr inbounds nuw %struct.CVodeMemRec, ptr %84, i32 0, i32 83
  %86 = load double, ptr %85, align 8, !tbaa !118
  %87 = load ptr, ptr %20, align 8, !tbaa !7
  %88 = getelementptr inbounds nuw %struct.CVodeMemRec, ptr %87, i32 0, i32 149
  %89 = load double, ptr %88, align 8, !tbaa !124
  %90 = fsub double %86, %89
  %91 = load double, ptr %15, align 8, !tbaa !102
  %92 = fsub double %90, %91
  store double %92, ptr %16, align 8, !tbaa !102
  %93 = load ptr, ptr %20, align 8, !tbaa !7
  %94 = getelementptr inbounds nuw %struct.CVodeMemRec, ptr %93, i32 0, i32 83
  %95 = load double, ptr %94, align 8, !tbaa !118
  %96 = load double, ptr %15, align 8, !tbaa !102
  %97 = fadd double %95, %96
  store double %97, ptr %17, align 8, !tbaa !102
  %98 = load double, ptr %8, align 8, !tbaa !102
  %99 = load double, ptr %16, align 8, !tbaa !102
  %100 = fsub double %98, %99
  %101 = load double, ptr %8, align 8, !tbaa !102
  %102 = load double, ptr %17, align 8, !tbaa !102
  %103 = fsub double %101, %102
  %104 = fmul double %100, %103
  %105 = fcmp ogt double %104, 0.000000e+00
  br i1 %105, label %106, label %108

106:                                              ; preds = %83
  %107 = load ptr, ptr %20, align 8, !tbaa !7
  call void (ptr, i32, ptr, ptr, ptr, ...) @cvProcessError(ptr noundef %107, i32 noundef -25, ptr noundef @.str, ptr noundef @.str.95, ptr noundef @.str.88)
  store i32 -25, ptr %6, align 4
  store i32 1, ptr %21, align 4
  br label %196

108:                                              ; preds = %83
  %109 = load double, ptr %8, align 8, !tbaa !102
  %110 = load ptr, ptr %20, align 8, !tbaa !7
  %111 = getelementptr inbounds nuw %struct.CVodeMemRec, ptr %110, i32 0, i32 83
  %112 = load double, ptr %111, align 8, !tbaa !118
  %113 = fsub double %109, %112
  %114 = load ptr, ptr %20, align 8, !tbaa !7
  %115 = getelementptr inbounds nuw %struct.CVodeMemRec, ptr %114, i32 0, i32 78
  %116 = load double, ptr %115, align 8, !tbaa !244
  %117 = fdiv double %113, %116
  store double %117, ptr %12, align 8, !tbaa !102
  %118 = load ptr, ptr %20, align 8, !tbaa !7
  %119 = getelementptr inbounds nuw %struct.CVodeMemRec, ptr %118, i32 0, i32 72
  %120 = load i32, ptr %119, align 8, !tbaa !119
  store i32 %120, ptr %19, align 4, !tbaa !3
  br label %121

121:                                              ; preds = %179, %108
  %122 = load i32, ptr %19, align 4, !tbaa !3
  %123 = load i32, ptr %9, align 4, !tbaa !3
  %124 = icmp sge i32 %122, %123
  br i1 %124, label %125, label %182

125:                                              ; preds = %121
  store double 1.000000e+00, ptr %13, align 8, !tbaa !102
  %126 = load i32, ptr %19, align 4, !tbaa !3
  store i32 %126, ptr %18, align 4, !tbaa !3
  br label %127

127:                                              ; preds = %139, %125
  %128 = load i32, ptr %18, align 4, !tbaa !3
  %129 = load i32, ptr %19, align 4, !tbaa !3
  %130 = load i32, ptr %9, align 4, !tbaa !3
  %131 = sub nsw i32 %129, %130
  %132 = add nsw i32 %131, 1
  %133 = icmp sge i32 %128, %132
  br i1 %133, label %134, label %142

134:                                              ; preds = %127
  %135 = load i32, ptr %18, align 4, !tbaa !3
  %136 = sitofp i32 %135 to double
  %137 = load double, ptr %13, align 8, !tbaa !102
  %138 = fmul double %137, %136
  store double %138, ptr %13, align 8, !tbaa !102
  br label %139

139:                                              ; preds = %134
  %140 = load i32, ptr %18, align 4, !tbaa !3
  %141 = add nsw i32 %140, -1
  store i32 %141, ptr %18, align 4, !tbaa !3
  br label %127, !llvm.loop !282

142:                                              ; preds = %127
  %143 = load i32, ptr %19, align 4, !tbaa !3
  %144 = load ptr, ptr %20, align 8, !tbaa !7
  %145 = getelementptr inbounds nuw %struct.CVodeMemRec, ptr %144, i32 0, i32 72
  %146 = load i32, ptr %145, align 8, !tbaa !119
  %147 = icmp eq i32 %143, %146
  br i1 %147, label %148, label %163

148:                                              ; preds = %142
  %149 = load double, ptr %13, align 8, !tbaa !102
  %150 = load ptr, ptr %20, align 8, !tbaa !7
  %151 = getelementptr inbounds nuw %struct.CVodeMemRec, ptr %150, i32 0, i32 57
  %152 = load ptr, ptr %20, align 8, !tbaa !7
  %153 = getelementptr inbounds nuw %struct.CVodeMemRec, ptr %152, i32 0, i32 72
  %154 = load i32, ptr %153, align 8, !tbaa !119
  %155 = sext i32 %154 to i64
  %156 = getelementptr inbounds [13 x ptr], ptr %151, i64 0, i64 %155
  %157 = load ptr, ptr %156, align 8, !tbaa !104
  %158 = load i32, ptr %10, align 4, !tbaa !3
  %159 = sext i32 %158 to i64
  %160 = getelementptr inbounds ptr, ptr %157, i64 %159
  %161 = load ptr, ptr %160, align 8, !tbaa !103
  %162 = load ptr, ptr %11, align 8, !tbaa !103
  call void @N_VScale(double noundef %149, ptr noundef %161, ptr noundef %162)
  br label %178

163:                                              ; preds = %142
  %164 = load double, ptr %13, align 8, !tbaa !102
  %165 = load ptr, ptr %20, align 8, !tbaa !7
  %166 = getelementptr inbounds nuw %struct.CVodeMemRec, ptr %165, i32 0, i32 57
  %167 = load i32, ptr %19, align 4, !tbaa !3
  %168 = sext i32 %167 to i64
  %169 = getelementptr inbounds [13 x ptr], ptr %166, i64 0, i64 %168
  %170 = load ptr, ptr %169, align 8, !tbaa !104
  %171 = load i32, ptr %10, align 4, !tbaa !3
  %172 = sext i32 %171 to i64
  %173 = getelementptr inbounds ptr, ptr %170, i64 %172
  %174 = load ptr, ptr %173, align 8, !tbaa !103
  %175 = load double, ptr %12, align 8, !tbaa !102
  %176 = load ptr, ptr %11, align 8, !tbaa !103
  %177 = load ptr, ptr %11, align 8, !tbaa !103
  call void @N_VLinearSum(double noundef %164, ptr noundef %174, double noundef %175, ptr noundef %176, ptr noundef %177)
  br label %178

178:                                              ; preds = %163, %148
  br label %179

179:                                              ; preds = %178
  %180 = load i32, ptr %19, align 4, !tbaa !3
  %181 = add nsw i32 %180, -1
  store i32 %181, ptr %19, align 4, !tbaa !3
  br label %121, !llvm.loop !283

182:                                              ; preds = %121
  %183 = load i32, ptr %9, align 4, !tbaa !3
  %184 = icmp eq i32 %183, 0
  br i1 %184, label %185, label %186

185:                                              ; preds = %182
  store i32 0, ptr %6, align 4
  store i32 1, ptr %21, align 4
  br label %196

186:                                              ; preds = %182
  %187 = load ptr, ptr %20, align 8, !tbaa !7
  %188 = getelementptr inbounds nuw %struct.CVodeMemRec, ptr %187, i32 0, i32 78
  %189 = load double, ptr %188, align 8, !tbaa !244
  %190 = load i32, ptr %9, align 4, !tbaa !3
  %191 = sub nsw i32 0, %190
  %192 = call double @SUNRpowerI(double noundef %189, i32 noundef %191)
  store double %192, ptr %14, align 8, !tbaa !102
  %193 = load double, ptr %14, align 8, !tbaa !102
  %194 = load ptr, ptr %11, align 8, !tbaa !103
  %195 = load ptr, ptr %11, align 8, !tbaa !103
  call void @N_VScale(double noundef %193, ptr noundef %194, ptr noundef %195)
  store i32 0, ptr %6, align 4
  store i32 1, ptr %21, align 4
  br label %196

196:                                              ; preds = %186, %185, %106, %59, %47, %36, %31, %24
  call void @llvm.lifetime.end.p0(i64 8, ptr %20) #8
  call void @llvm.lifetime.end.p0(i64 4, ptr %19) #8
  call void @llvm.lifetime.end.p0(i64 4, ptr %18) #8
  call void @llvm.lifetime.end.p0(i64 8, ptr %17) #8
  call void @llvm.lifetime.end.p0(i64 8, ptr %16) #8
  call void @llvm.lifetime.end.p0(i64 8, ptr %15) #8
  call void @llvm.lifetime.end.p0(i64 8, ptr %14) #8
  call void @llvm.lifetime.end.p0(i64 8, ptr %13) #8
  call void @llvm.lifetime.end.p0(i64 8, ptr %12) #8
  %197 = load i32, ptr %6, align 4
  ret i32 %197
}